; ModuleID = '5/315.c'
source_filename = "5/315.c"
target datalayout = "e-m:e-p270:32:32-p271:32:32-p272:64:64-i64:64-f80:128-n8:16:32:64-S128"
target triple = "x86_64-pc-linux-gnu"

@.str = private unnamed_addr constant [8 x i8] c"%lf%s%s\00", align 1
@.str.1 = private unnamed_addr constant [6 x i8] c"error\00", align 1
@.str.2 = private unnamed_addr constant [4 x i8] c"yes\00", align 1
@.str.3 = private unnamed_addr constant [3 x i8] c"no\00", align 1

; Function Attrs: noinline nounwind uwtable
define dso_local i32 @main() #0 {
  %1 = alloca i32, align 4
  %2 = alloca i32, align 4
  %3 = alloca i32, align 4
  %4 = alloca i32, align 4
  %5 = alloca i32, align 4
  %6 = alloca [10000 x i8], align 16
  %7 = alloca [10000 x i8], align 16
  %8 = alloca double, align 8
  %9 = alloca double, align 8
  store i32 0, i32* %1, align 4
  store i32 0, i32* %3, align 4
  store i32 0, i32* %4, align 4
  store i32 0, i32* %5, align 4
  %10 = call i32 (i8*, ...) @__isoc99_scanf(i8* getelementptr inbounds ([8 x i8], [8 x i8]* @.str, i64 0, i64 0), double* %8, [10000 x i8]* %6, [10000 x i8]* %7)
  store i32 0, i32* %2, align 4
  br label %11

11:                                               ; preds = %94, %0
  %12 = load i32, i32* %2, align 4
  %13 = sext i32 %12 to i64
  %14 = getelementptr inbounds [10000 x i8], [10000 x i8]* %6, i64 0, i64 %13
  %15 = load i8, i8* %14, align 1
  %16 = icmp ne i8 %15, 0
  br i1 %16, label %17, label %97

17:                                               ; preds = %11
  %18 = load i32, i32* %2, align 4
  %19 = sext i32 %18 to i64
  %20 = getelementptr inbounds [10000 x i8], [10000 x i8]* %6, i64 0, i64 %19
  %21 = load i8, i8* %20, align 1
  %22 = sext i8 %21 to i32
  %23 = load i32, i32* %2, align 4
  %24 = sext i32 %23 to i64
  %25 = getelementptr inbounds [10000 x i8], [10000 x i8]* %7, i64 0, i64 %24
  %26 = load i8, i8* %25, align 1
  %27 = sext i8 %26 to i32
  %28 = icmp eq i32 %22, %27
  br i1 %28, label %29, label %32

29:                                               ; preds = %17
  %30 = load i32, i32* %3, align 4
  %31 = add nsw i32 %30, 1
  store i32 %31, i32* %3, align 4
  br label %32

32:                                               ; preds = %29, %17
  %33 = load i32, i32* %4, align 4
  %34 = add nsw i32 %33, 1
  store i32 %34, i32* %4, align 4
  %35 = load i32, i32* %2, align 4
  %36 = sext i32 %35 to i64
  %37 = getelementptr inbounds [10000 x i8], [10000 x i8]* %6, i64 0, i64 %36
  %38 = load i8, i8* %37, align 1
  %39 = sext i8 %38 to i32
  %40 = icmp ne i32 %39, 65
  br i1 %40, label %41, label %62

41:                                               ; preds = %32
  %42 = load i32, i32* %2, align 4
  %43 = sext i32 %42 to i64
  %44 = getelementptr inbounds [10000 x i8], [10000 x i8]* %6, i64 0, i64 %43
  %45 = load i8, i8* %44, align 1
  %46 = sext i8 %45 to i32
  %47 = icmp ne i32 %46, 84
  br i1 %47, label %48, label %62

48:                                               ; preds = %41
  %49 = load i32, i32* %2, align 4
  %50 = sext i32 %49 to i64
  %51 = getelementptr inbounds [10000 x i8], [10000 x i8]* %6, i64 0, i64 %50
  %52 = load i8, i8* %51, align 1
  %53 = sext i8 %52 to i32
  %54 = icmp ne i32 %53, 67
  br i1 %54, label %55, label %62

55:                                               ; preds = %48
  %56 = load i32, i32* %2, align 4
  %57 = sext i32 %56 to i64
  %58 = getelementptr inbounds [10000 x i8], [10000 x i8]* %6, i64 0, i64 %57
  %59 = load i8, i8* %58, align 1
  %60 = sext i8 %59 to i32
  %61 = icmp ne i32 %60, 71
  br i1 %61, label %90, label %62

62:                                               ; preds = %55, %48, %41, %32
  %63 = load i32, i32* %2, align 4
  %64 = sext i32 %63 to i64
  %65 = getelementptr inbounds [10000 x i8], [10000 x i8]* %7, i64 0, i64 %64
  %66 = load i8, i8* %65, align 1
  %67 = sext i8 %66 to i32
  %68 = icmp ne i32 %67, 65
  br i1 %68, label %69, label %93

69:                                               ; preds = %62
  %70 = load i32, i32* %2, align 4
  %71 = sext i32 %70 to i64
  %72 = getelementptr inbounds [10000 x i8], [10000 x i8]* %7, i64 0, i64 %71
  %73 = load i8, i8* %72, align 1
  %74 = sext i8 %73 to i32
  %75 = icmp ne i32 %74, 84
  br i1 %75, label %76, label %93

76:                                               ; preds = %69
  %77 = load i32, i32* %2, align 4
  %78 = sext i32 %77 to i64
  %79 = getelementptr inbounds [10000 x i8], [10000 x i8]* %7, i64 0, i64 %78
  %80 = load i8, i8* %79, align 1
  %81 = sext i8 %80 to i32
  %82 = icmp ne i32 %81, 67
  br i1 %82, label %83, label %93

83:                                               ; preds = %76
  %84 = load i32, i32* %2, align 4
  %85 = sext i32 %84 to i64
  %86 = getelementptr inbounds [10000 x i8], [10000 x i8]* %7, i64 0, i64 %85
  %87 = load i8, i8* %86, align 1
  %88 = sext i8 %87 to i32
  %89 = icmp ne i32 %88, 71
  br i1 %89, label %90, label %93

90:                                               ; preds = %83, %55
  %91 = load i32, i32* %5, align 4
  %92 = add nsw i32 %91, 1
  store i32 %92, i32* %5, align 4
  br label %93

93:                                               ; preds = %90, %83, %76, %69, %62
  br label %94

94:                                               ; preds = %93
  %95 = load i32, i32* %2, align 4
  %96 = add nsw i32 %95, 1
  store i32 %96, i32* %2, align 4
  br label %11

97:                                               ; preds = %11
  %98 = load i32, i32* %3, align 4
  %99 = sitofp i32 %98 to double
  %100 = fmul double 1.000000e+00, %99
  %101 = load i32, i32* %4, align 4
  %102 = sitofp i32 %101 to double
  %103 = fdiv double %100, %102
  store double %103, double* %9, align 8
  %104 = load i32, i32* %5, align 4
  %105 = icmp ne i32 %104, 0
  br i1 %105, label %106, label %108

106:                                              ; preds = %97
  %107 = call i32 (i8*, ...) @printf(i8* getelementptr inbounds ([6 x i8], [6 x i8]* @.str.1, i64 0, i64 0))
  br label %108

108:                                              ; preds = %106, %97
  %109 = load i32, i32* %5, align 4
  %110 = icmp eq i32 %109, 0
  br i1 %110, label %111, label %117

111:                                              ; preds = %108
  %112 = load double, double* %9, align 8
  %113 = load double, double* %8, align 8
  %114 = fcmp ogt double %112, %113
  br i1 %114, label %115, label %117

115:                                              ; preds = %111
  %116 = call i32 (i8*, ...) @printf(i8* getelementptr inbounds ([4 x i8], [4 x i8]* @.str.2, i64 0, i64 0))
  br label %117

117:                                              ; preds = %115, %111, %108
  %118 = load i32, i32* %5, align 4
  %119 = icmp eq i32 %118, 0
  br i1 %119, label %120, label %126

120:                                              ; preds = %117
  %121 = load double, double* %9, align 8
  %122 = load double, double* %8, align 8
  %123 = fcmp ole double %121, %122
  br i1 %123, label %124, label %126

124:                                              ; preds = %120
  %125 = call i32 (i8*, ...) @printf(i8* getelementptr inbounds ([3 x i8], [3 x i8]* @.str.3, i64 0, i64 0))
  br label %126

126:                                              ; preds = %124, %120, %117
  ret i32 0
}

declare dso_local i32 @__isoc99_scanf(i8*, ...) #1

declare dso_local i32 @printf(i8*, ...) #1


!llvm.module.flags = !{!0}
!llvm.ident = !{!1}

!0 = !{i32 1, !"wchar_size", i32 4}
!1 = !{!"clang version 10.0.0-4ubuntu1 "}
